target datalayout = "e-m:e-p270:32:32-p271:32:32-p272:64:64-i64:64-i128:128-f80:128-n8:16:32:64-S128"
target triple = "x86_64-pc-linux-gnu"

%class.ResolutionErrorEntry = type { ptr, ptr, ptr, ptr, ptr }

; Function Attrs: mustprogress nounwind uwtable
define linkonce_odr hidden void @_ZN6Symbol24maybe_increment_refcountEPS_(ptr noundef %0) #1 comdat align 2 {
  %2 = alloca ptr, align 8
  store ptr %0, ptr %2, align 8
  %3 = load ptr, ptr %2, align 8
  %4 = icmp ne ptr %3, null
  br i1 %4, label %5, label %7

5:                                                ; preds = %1
  %6 = load ptr, ptr %2, align 8
  call void @_ZN6Symbol18increment_refcountEv(ptr noundef nonnull align 4 dereferenceable(8) %6)
  br label %7

7:                                                ; preds = %5, %1
  ret void
}

; Function Attrs: mustprogress nounwind uwtable
define hidden void @_ZN20ResolutionErrorEntryC2EP6SymbolPKcS1_S3_(ptr noundef nonnull align 8 dereferenceable(40) %0, ptr noundef %1, ptr noundef %2, ptr noundef %3, ptr noundef %4) unnamed_addr #1 align 2 {
  %6 = alloca ptr, align 8
  %7 = alloca ptr, align 8
  %8 = alloca ptr, align 8
  %9 = alloca ptr, align 8
  %10 = alloca ptr, align 8
  store ptr %0, ptr %6, align 8
  store ptr %1, ptr %7, align 8
  store ptr %2, ptr %8, align 8
  store ptr %3, ptr %9, align 8
  store ptr %4, ptr %10, align 8
  %11 = load ptr, ptr %6, align 8
  %12 = getelementptr inbounds %class.ResolutionErrorEntry, ptr %11, i32 0, i32 0
  %13 = load ptr, ptr %7, align 8
  store ptr %13, ptr %12, align 8
  %14 = getelementptr inbounds %class.ResolutionErrorEntry, ptr %11, i32 0, i32 1
  %15 = load ptr, ptr %8, align 8
  %16 = icmp ne ptr %15, null
  br i1 %16, label %17, label %20

17:                                               ; preds = %5
  %18 = load ptr, ptr %8, align 8
  %19 = call noundef ptr @_ZN2os6strdupEPKc8MEMFLAGS(ptr noundef %18, i8 noundef zeroext 9)
  br label %21

20:                                               ; preds = %5
  br label %21

21:                                               ; preds = %20, %17
  %22 = phi ptr [ %19, %17 ], [ null, %20 ]
  store ptr %22, ptr %14, align 8
  %23 = getelementptr inbounds %class.ResolutionErrorEntry, ptr %11, i32 0, i32 2
  %24 = load ptr, ptr %9, align 8
  store ptr %24, ptr %23, align 8
  %25 = getelementptr inbounds %class.ResolutionErrorEntry, ptr %11, i32 0, i32 3
  %26 = load ptr, ptr %10, align 8
  %27 = icmp ne ptr %26, null
  br i1 %27, label %28, label %31

28:                                               ; preds = %21
  %29 = load ptr, ptr %10, align 8
  %30 = call noundef ptr @_ZN2os6strdupEPKc8MEMFLAGS(ptr noundef %29, i8 noundef zeroext 9)
  br label %32

31:                                               ; preds = %21
  br label %32

32:                                               ; preds = %31, %28
  %33 = phi ptr [ %30, %28 ], [ null, %31 ]
  store ptr %33, ptr %25, align 8
  %34 = getelementptr inbounds %class.ResolutionErrorEntry, ptr %11, i32 0, i32 4
  store ptr null, ptr %34, align 8
  %35 = getelementptr inbounds %class.ResolutionErrorEntry, ptr %11, i32 0, i32 0
  %36 = load ptr, ptr %35, align 8
  call void @_ZN6Symbol24maybe_increment_refcountEPS_(ptr noundef %36)
  %37 = getelementptr inbounds %class.ResolutionErrorEntry, ptr %11, i32 0, i32 2
  %38 = load ptr, ptr %37, align 8
  call void @_ZN6Symbol24maybe_increment_refcountEPS_(ptr noundef %38)
  ret void
}