; Function Attrs: mustprogress nounwind uwtable
define hidden void @_ZN20ResolutionErrorEntryC2EP6SymbolPKcS1_S3_(ptr nocapture noundef nonnull align 8 dereferenceable(40) %0, ptr noundef %1, ptr noundef %2, ptr noundef %3, ptr noundef %4) unnamed_addr #0 align 2 {
  store ptr %1, ptr %0, align 8
  %6 = getelementptr inbounds i8, ptr %0, i64 8
  %.not = icmp eq ptr %2, null
  br i1 %.not, label %9, label %7

7:                                                ; preds = %5
  %8 = tail call noundef ptr @_ZN2os6strdupEPKc8MEMFLAGS(ptr noundef nonnull %2, i8 noundef zeroext 9) #7
  br label %9

9:                                                ; preds = %5, %7
  %10 = phi ptr [ %8, %7 ], [ null, %5 ]
  store ptr %10, ptr %6, align 8
  %11 = getelementptr inbounds i8, ptr %0, i64 16
  store ptr %3, ptr %11, align 8
  %.not8 = icmp eq ptr %4, null
  br i1 %.not8, label %14, label %12

12:                                               ; preds = %9
  %13 = tail call noundef ptr @_ZN2os6strdupEPKc8MEMFLAGS(ptr noundef nonnull %4, i8 noundef zeroext 9) #7
  br label %14

14:                                               ; preds = %9, %12
  %15 = phi ptr [ %13, %12 ], [ null, %9 ]
  %16 = getelementptr inbounds i8, ptr %0, i64 24
  store ptr %15, ptr %16, align 8
  %17 = getelementptr inbounds i8, ptr %0, i64 32
  store ptr null, ptr %17, align 8
  %18 = load ptr, ptr %0, align 8
  %.not.i = icmp eq ptr %18, null
  br i1 %.not.i, label %_ZN6Symbol24maybe_increment_refcountEPS_.exit, label %19

19:                                               ; preds = %14
  tail call void @_ZN6Symbol18increment_refcountEv(ptr noundef nonnull align 4 dereferenceable(8) %18) #7
  br label %_ZN6Symbol24maybe_increment_refcountEPS_.exit

_ZN6Symbol24maybe_increment_refcountEPS_.exit:    ; preds = %14, %19
  %20 = load ptr, ptr %11, align 8
  %.not.i9 = icmp eq ptr %20, null
  br i1 %.not.i9, label %_ZN6Symbol24maybe_increment_refcountEPS_.exit10, label %21

21:                                               ; preds = %_ZN6Symbol24maybe_increment_refcountEPS_.exit
  tail call void @_ZN6Symbol18increment_refcountEv(ptr noundef nonnull align 4 dereferenceable(8) %20) #7
  br label %_ZN6Symbol24maybe_increment_refcountEPS_.exit10

_ZN6Symbol24maybe_increment_refcountEPS_.exit10:  ; preds = %_ZN6Symbol24maybe_increment_refcountEPS_.exit, %21
  ret void
}